target datalayout = "e-m:e-p270:32:32-p271:32:32-p272:64:64-i64:64-i128:128-f80:128-n8:16:32:64-S128"
target triple = "x86_64-pc-linux-gnu"

@.str.5 = private unnamed_addr constant [7 x i8] c", \22%s\22\00", align 1
@.str.12 = private unnamed_addr constant [16 x i8] c"  {discr = 0x%X\00", align 1
@.str.13 = private unnamed_addr constant [14 x i8] c"  {discr = %i\00", align 1
@.str.14 = private unnamed_addr constant [14 x i8] c", long = \22%s\22\00", align 1
@.str.15 = private unnamed_addr constant [15 x i8] c", short = \22%s\22\00", align 1
@.str.16 = private unnamed_addr constant [18 x i8] c", aliases = [\22%s\22\00", align 1
@.str.17 = private unnamed_addr constant [2 x i8] c"]\00", align 1
@.str.18 = private unnamed_addr constant [4 x i8] c"},\0A\00", align 1

; Function Attrs: mustprogress uwtable
define dso_local void @_Z14dumpValueEntry9UPropertyibP8_IO_FILE(i32 noundef %0, i32 noundef %1, i1 noundef zeroext %2, ptr noundef %3) #5 {
  %5 = alloca i32, align 4
  %6 = alloca i32, align 4
  %7 = alloca i8, align 1
  %8 = alloca ptr, align 8
  %9 = alloca ptr, align 8
  %10 = alloca ptr, align 8
  %11 = alloca i32, align 4
  %12 = alloca i32, align 4
  %13 = alloca ptr, align 8
  store i32 %0, ptr %5, align 4, !tbaa !34
  store i32 %1, ptr %6, align 4, !tbaa !15
  %14 = zext i1 %2 to i8
  store i8 %14, ptr %7, align 1, !tbaa !46
  store ptr %3, ptr %8, align 8, !tbaa !36
  call void @llvm.lifetime.start.p0(i64 8, ptr %9) #3
  %15 = load i32, ptr %5, align 4, !tbaa !34
  %16 = load i32, ptr %6, align 4, !tbaa !15
  %17 = call ptr @u_getPropertyValueName_77(i32 noundef %15, i32 noundef %16, i32 noundef 1)
  store ptr %17, ptr %9, align 8, !tbaa !18
  call void @llvm.lifetime.start.p0(i64 8, ptr %10) #3
  %18 = load i32, ptr %5, align 4, !tbaa !34
  %19 = load i32, ptr %6, align 4, !tbaa !15
  %20 = call ptr @u_getPropertyValueName_77(i32 noundef %18, i32 noundef %19, i32 noundef 0)
  store ptr %20, ptr %10, align 8, !tbaa !18
  %21 = load ptr, ptr %9, align 8, !tbaa !18
  %22 = icmp ne ptr %21, null
  br i1 %22, label %24, label %23

23:                                               ; preds = %4
  store i32 1, ptr %11, align 4
  br label %81

24:                                               ; preds = %4
  %25 = load i8, ptr %7, align 1, !tbaa !46, !range !48, !noundef !49
  %26 = trunc i8 %25 to i1
  br i1 %26, label %27, label %31

27:                                               ; preds = %24
  %28 = load ptr, ptr %8, align 8, !tbaa !36
  %29 = load i32, ptr %6, align 4, !tbaa !15
  %30 = call i32 (ptr, ptr, ...) @fprintf(ptr noundef %28, ptr noundef @.str.12, i32 noundef %29) #3
  br label %35

31:                                               ; preds = %24
  %32 = load ptr, ptr %8, align 8, !tbaa !36
  %33 = load i32, ptr %6, align 4, !tbaa !15
  %34 = call i32 (ptr, ptr, ...) @fprintf(ptr noundef %32, ptr noundef @.str.13, i32 noundef %33) #3
  br label %35

35:                                               ; preds = %31, %27
  %36 = load ptr, ptr %8, align 8, !tbaa !36
  %37 = load ptr, ptr %9, align 8, !tbaa !18
  %38 = call i32 (ptr, ptr, ...) @fprintf(ptr noundef %36, ptr noundef @.str.14, ptr noundef %37) #3
  %39 = load ptr, ptr %10, align 8, !tbaa !18
  %40 = icmp ne ptr %39, null
  br i1 %40, label %41, label %45

41:                                               ; preds = %35
  %42 = load ptr, ptr %8, align 8, !tbaa !36
  %43 = load ptr, ptr %10, align 8, !tbaa !18
  %44 = call i32 (ptr, ptr, ...) @fprintf(ptr noundef %42, ptr noundef @.str.15, ptr noundef %43) #3
  br label %45

45:                                               ; preds = %41, %35
  call void @llvm.lifetime.start.p0(i64 4, ptr %12) #3
  store i32 2, ptr %12, align 4, !tbaa !15
  br label %46

46:                                               ; preds = %71, %45
  br label %47

47:                                               ; preds = %46
  call void @llvm.lifetime.start.p0(i64 8, ptr %13) #3
  %48 = load i32, ptr %5, align 4, !tbaa !34
  %49 = load i32, ptr %6, align 4, !tbaa !15
  %50 = load i32, ptr %12, align 4, !tbaa !15
  %51 = call ptr @u_getPropertyValueName_77(i32 noundef %48, i32 noundef %49, i32 noundef %50)
  store ptr %51, ptr %13, align 8, !tbaa !18
  %52 = load ptr, ptr %13, align 8, !tbaa !18
  %53 = icmp ne ptr %52, null
  br i1 %53, label %55, label %54

54:                                               ; preds = %47
  store i32 3, ptr %11, align 4
  br label %69

55:                                               ; preds = %47
  %56 = load i32, ptr %12, align 4, !tbaa !15
  %57 = icmp eq i32 %56, 2
  br i1 %57, label %58, label %62

58:                                               ; preds = %55
  %59 = load ptr, ptr %8, align 8, !tbaa !36
  %60 = load ptr, ptr %13, align 8, !tbaa !18
  %61 = call i32 (ptr, ptr, ...) @fprintf(ptr noundef %59, ptr noundef @.str.16, ptr noundef %60) #3
  br label %66

62:                                               ; preds = %55
  %63 = load ptr, ptr %8, align 8, !tbaa !36
  %64 = load ptr, ptr %13, align 8, !tbaa !18
  %65 = call i32 (ptr, ptr, ...) @fprintf(ptr noundef %63, ptr noundef @.str.5, ptr noundef %64) #3
  br label %66

66:                                               ; preds = %62, %58
  %67 = load i32, ptr %12, align 4, !tbaa !15
  %68 = add nsw i32 %67, 1
  store i32 %68, ptr %12, align 4, !tbaa !15
  store i32 0, ptr %11, align 4
  br label %69

69:                                               ; preds = %66, %54
  call void @llvm.lifetime.end.p0(i64 8, ptr %13) #3
  %70 = load i32, ptr %11, align 4
  switch i32 %70, label %84 [
    i32 0, label %71
    i32 3, label %72
  ]

71:                                               ; preds = %69
  br label %46, !llvm.loop !50

72:                                               ; preds = %69
  %73 = load i32, ptr %12, align 4, !tbaa !15
  %74 = icmp ne i32 %73, 2
  br i1 %74, label %75, label %78

75:                                               ; preds = %72
  %76 = load ptr, ptr %8, align 8, !tbaa !36
  %77 = call i32 (ptr, ptr, ...) @fprintf(ptr noundef %76, ptr noundef @.str.17) #3
  br label %78

78:                                               ; preds = %75, %72
  %79 = load ptr, ptr %8, align 8, !tbaa !36
  %80 = call i32 (ptr, ptr, ...) @fprintf(ptr noundef %79, ptr noundef @.str.18) #3
  call void @llvm.lifetime.end.p0(i64 4, ptr %12) #3
  store i32 0, ptr %11, align 4
  br label %81

81:                                               ; preds = %78, %23
  call void @llvm.lifetime.end.p0(i64 8, ptr %10) #3
  call void @llvm.lifetime.end.p0(i64 8, ptr %9) #3
  %82 = load i32, ptr %11, align 4
  switch i32 %82, label %84 [
    i32 0, label %83
    i32 1, label %83
  ]

83:                                               ; preds = %81, %81
  ret void

84:                                               ; preds = %81, %69
  unreachable
}