; Function Attrs: mustprogress uwtable
define dso_local void @_Z14dumpValueEntry9UPropertyibP8_IO_FILE(i32 noundef %0, i32 noundef %1, i1 noundef zeroext %2, ptr noundef captures(none) %3) local_unnamed_addr #4 {
  %5 = tail call ptr @u_getPropertyValueName_77(i32 noundef %0, i32 noundef %1, i32 noundef 1)
  %6 = tail call ptr @u_getPropertyValueName_77(i32 noundef %0, i32 noundef %1, i32 noundef 0)
  %.not = icmp eq ptr %5, null
  br i1 %.not, label %22, label %7

7:                                                ; preds = %4
  %.str.12..str.13 = select i1 %2, ptr @.str.12, ptr @.str.13
  %8 = tail call i32 (ptr, ptr, ...) @fprintf(ptr noundef %3, ptr noundef nonnull %.str.12..str.13, i32 noundef %1) #28
  %9 = tail call i32 (ptr, ptr, ...) @fprintf(ptr noundef %3, ptr noundef nonnull @.str.14, ptr noundef nonnull %5) #28
  %.not32 = icmp eq ptr %6, null
  br i1 %.not32, label %12, label %10

10:                                               ; preds = %7
  %11 = tail call i32 (ptr, ptr, ...) @fprintf(ptr noundef %3, ptr noundef nonnull @.str.15, ptr noundef nonnull %6) #28
  br label %12

12:                                               ; preds = %10, %7
  %13 = tail call ptr @u_getPropertyValueName_77(i32 noundef %0, i32 noundef %1, i32 noundef 2)
  %.not3339 = icmp eq ptr %13, null
  br i1 %.not3339, label %._crit_edge.thread, label %.lr.ph

.lr.ph:                                           ; preds = %12, %.lr.ph
  %14 = phi ptr [ %18, %.lr.ph ], [ %13, %12 ]
  %.02840 = phi i32 [ %17, %.lr.ph ], [ 2, %12 ]
  %15 = icmp eq i32 %.02840, 2
  %.str.16..str.5 = select i1 %15, ptr @.str.16, ptr @.str.5
  %16 = tail call i32 (ptr, ptr, ...) @fprintf(ptr noundef %3, ptr noundef nonnull %.str.16..str.5, ptr noundef nonnull %14) #28
  %17 = add nuw nsw i32 %.02840, 1
  %18 = tail call ptr @u_getPropertyValueName_77(i32 noundef %0, i32 noundef %1, i32 noundef %17)
  %.not33 = icmp eq ptr %18, null
  br i1 %.not33, label %._crit_edge, label %.lr.ph

._crit_edge:                                      ; preds = %.lr.ph
  %19 = icmp eq i32 %17, 2
  br i1 %19, label %._crit_edge.thread, label %20

20:                                               ; preds = %._crit_edge
  %fputc = tail call i32 @fputc(i32 93, ptr %3)
  br label %._crit_edge.thread

._crit_edge.thread:                               ; preds = %12, %20, %._crit_edge
  %21 = tail call i64 @fwrite(ptr nonnull @.str.18, i64 3, i64 1, ptr %3)
  br label %22

22:                                               ; preds = %4, %._crit_edge.thread
  ret void
}